target datalayout = "e-m:e-p270:32:32-p271:32:32-p272:64:64-i64:64-i128:128-f80:128-n8:16:32:64-S128"
target triple = "x86_64-pc-linux-gnu"

%struct.ec_group_st = type { ptr, ptr, %struct.bignum_st, %struct.bignum_st, i32, ptr, %struct.bignum_st, %struct.bignum_st, %struct.bignum_st, i32, ptr, %struct.bignum_st }
%struct.bignum_st = type { ptr, i32, i32, i32, i32 }

; Function Attrs: nounwind uwtable
define hidden i32 @ec_GFp_simple_group_copy(ptr noundef %0, ptr noundef %1) #0 {
  %3 = alloca i32, align 4
  %4 = alloca ptr, align 8
  %5 = alloca ptr, align 8
  store ptr %0, ptr %4, align 8, !tbaa !6
  store ptr %1, ptr %5, align 8, !tbaa !6
  %6 = load ptr, ptr %4, align 8, !tbaa !6
  %7 = getelementptr inbounds nuw %struct.ec_group_st, ptr %6, i32 0, i32 6
  %8 = load ptr, ptr %5, align 8, !tbaa !6
  %9 = getelementptr inbounds nuw %struct.ec_group_st, ptr %8, i32 0, i32 6
  %10 = call ptr @BN_copy(ptr noundef %7, ptr noundef %9)
  %11 = icmp ne ptr %10, null
  br i1 %11, label %12, label %33

12:                                               ; preds = %2
  %13 = load ptr, ptr %4, align 8, !tbaa !6
  %14 = getelementptr inbounds nuw %struct.ec_group_st, ptr %13, i32 0, i32 7
  %15 = load ptr, ptr %5, align 8, !tbaa !6
  %16 = getelementptr inbounds nuw %struct.ec_group_st, ptr %15, i32 0, i32 7
  %17 = call ptr @BN_copy(ptr noundef %14, ptr noundef %16)
  %18 = icmp ne ptr %17, null
  br i1 %18, label %19, label %33

19:                                               ; preds = %12
  %20 = load ptr, ptr %4, align 8, !tbaa !6
  %21 = getelementptr inbounds nuw %struct.ec_group_st, ptr %20, i32 0, i32 8
  %22 = load ptr, ptr %5, align 8, !tbaa !6
  %23 = getelementptr inbounds nuw %struct.ec_group_st, ptr %22, i32 0, i32 8
  %24 = call ptr @BN_copy(ptr noundef %21, ptr noundef %23)
  %25 = icmp ne ptr %24, null
  br i1 %25, label %26, label %33

26:                                               ; preds = %19
  %27 = load ptr, ptr %4, align 8, !tbaa !6
  %28 = getelementptr inbounds nuw %struct.ec_group_st, ptr %27, i32 0, i32 11
  %29 = load ptr, ptr %5, align 8, !tbaa !6
  %30 = getelementptr inbounds nuw %struct.ec_group_st, ptr %29, i32 0, i32 11
  %31 = call ptr @BN_copy(ptr noundef %28, ptr noundef %30)
  %32 = icmp ne ptr %31, null
  br i1 %32, label %34, label %33

33:                                               ; preds = %26, %19, %12, %2
  store i32 0, ptr %3, align 4
  br label %40

34:                                               ; preds = %26
  %35 = load ptr, ptr %5, align 8, !tbaa !6
  %36 = getelementptr inbounds nuw %struct.ec_group_st, ptr %35, i32 0, i32 9
  %37 = load i32, ptr %36, align 8, !tbaa !11
  %38 = load ptr, ptr %4, align 8, !tbaa !6
  %39 = getelementptr inbounds nuw %struct.ec_group_st, ptr %38, i32 0, i32 9
  store i32 %37, ptr %39, align 8, !tbaa !11
  store i32 1, ptr %3, align 4
  br label %40

40:                                               ; preds = %34, %33
  %41 = load i32, ptr %3, align 4
  ret i32 %41
}