; Function Attrs: nounwind uwtable
define hidden range(i32 0, 2) i32 @ec_GFp_simple_group_copy(ptr noundef %0, ptr noundef %1) local_unnamed_addr #0 {
  %3 = getelementptr inbounds nuw i8, ptr %0, i64 80
  %4 = getelementptr inbounds nuw i8, ptr %1, i64 80
  %5 = tail call ptr @BN_copy(ptr noundef nonnull %3, ptr noundef nonnull %4) #5
  %.not = icmp eq ptr %5, null
  br i1 %.not, label %22, label %6

6:                                                ; preds = %2
  %7 = getelementptr inbounds nuw i8, ptr %0, i64 104
  %8 = getelementptr inbounds nuw i8, ptr %1, i64 104
  %9 = tail call ptr @BN_copy(ptr noundef nonnull %7, ptr noundef nonnull %8) #5
  %.not10 = icmp eq ptr %9, null
  br i1 %.not10, label %22, label %10

10:                                               ; preds = %6
  %11 = getelementptr inbounds nuw i8, ptr %0, i64 128
  %12 = getelementptr inbounds nuw i8, ptr %1, i64 128
  %13 = tail call ptr @BN_copy(ptr noundef nonnull %11, ptr noundef nonnull %12) #5
  %.not11 = icmp eq ptr %13, null
  br i1 %.not11, label %22, label %14

14:                                               ; preds = %10
  %15 = getelementptr inbounds nuw i8, ptr %0, i64 168
  %16 = getelementptr inbounds nuw i8, ptr %1, i64 168
  %17 = tail call ptr @BN_copy(ptr noundef nonnull %15, ptr noundef nonnull %16) #5
  %.not12 = icmp eq ptr %17, null
  br i1 %.not12, label %22, label %18

18:                                               ; preds = %14
  %19 = getelementptr inbounds nuw i8, ptr %1, i64 152
  %20 = load i32, ptr %19, align 8, !tbaa !6
  %21 = getelementptr inbounds nuw i8, ptr %0, i64 152
  store i32 %20, ptr %21, align 8, !tbaa !6
  br label %22

22:                                               ; preds = %2, %6, %10, %14, %18
  %.0 = phi i32 [ 1, %18 ], [ 0, %14 ], [ 0, %10 ], [ 0, %6 ], [ 0, %2 ]
  ret i32 %.0
}